target datalayout = "e-m:e-p270:32:32-p271:32:32-p272:64:64-i64:64-i128:128-f80:128-n8:16:32:64-S128"
target triple = "x86_64-pc-linux-gnu"

%struct.lean_object = type { i32, i32 }
%struct.lean_string_object = type { %struct.lean_object, i64, i64, i64, [0 x i8] }
%struct.lean_ctor_object = type { %struct.lean_object, [0 x ptr] }

@l_Lean_Core_instMonadLogCoreM___lambda__5___closed__1 = internal global ptr null, align 8
@l_Lean_initFn____x40_Lean_CoreM___hyg_114____closed__1 = internal global ptr null, align 8
@l_Lean_Core_instMonadLogCoreM___lambda__5___closed__2 = internal global ptr null, align 8
@l_Lean_Core_instMonadLogCoreM___lambda__5___closed__3 = internal global ptr null, align 8
@l_Lean_Core_instMonadLogCoreM___lambda__5___closed__4 = internal global ptr null, align 8

; Function Attrs: inlinehint nounwind uwtable
define internal ptr @lean_to_string(ptr noundef %0) #0 {
  %2 = alloca ptr, align 8
  store ptr %0, ptr %2, align 8, !tbaa !4
  %3 = load ptr, ptr %2, align 8, !tbaa !4
  ret ptr %3
}

; Function Attrs: inlinehint nounwind uwtable
define internal i64 @lean_string_size(ptr noundef %0) #0 {
  %2 = alloca ptr, align 8
  store ptr %0, ptr %2, align 8, !tbaa !4
  %3 = load ptr, ptr %2, align 8, !tbaa !4
  %4 = call ptr @lean_to_string(ptr noundef %3)
  %5 = getelementptr inbounds nuw %struct.lean_string_object, ptr %4, i32 0, i32 1
  %6 = load i64, ptr %5, align 8, !tbaa !8
  ret i64 %6
}

; Function Attrs: inlinehint nounwind uwtable
define internal ptr @lean_to_ctor(ptr noundef %0) #0 {
  %2 = alloca ptr, align 8
  store ptr %0, ptr %2, align 8, !tbaa !4
  %3 = load ptr, ptr %2, align 8, !tbaa !4
  ret ptr %3
}

; Function Attrs: inlinehint nounwind uwtable
define internal zeroext i1 @lean_string_eq(ptr noundef %0, ptr noundef %1) #0 {
  %3 = alloca ptr, align 8
  %4 = alloca ptr, align 8
  store ptr %0, ptr %3, align 8, !tbaa !4
  store ptr %1, ptr %4, align 8, !tbaa !4
  %5 = load ptr, ptr %3, align 8, !tbaa !4
  %6 = load ptr, ptr %4, align 8, !tbaa !4
  %7 = icmp eq ptr %5, %6
  br i1 %7, label %20, label %8

8:                                                ; preds = %2
  %9 = load ptr, ptr %3, align 8, !tbaa !4
  %10 = call i64 @lean_string_size(ptr noundef %9)
  %11 = load ptr, ptr %4, align 8, !tbaa !4
  %12 = call i64 @lean_string_size(ptr noundef %11)
  %13 = icmp eq i64 %10, %12
  br i1 %13, label %14, label %18

14:                                               ; preds = %8
  %15 = load ptr, ptr %3, align 8, !tbaa !4
  %16 = load ptr, ptr %4, align 8, !tbaa !4
  %17 = call zeroext i1 @lean_string_eq_cold(ptr noundef %15, ptr noundef %16)
  br label %18

18:                                               ; preds = %14, %8
  %19 = phi i1 [ false, %8 ], [ %17, %14 ]
  br label %20

20:                                               ; preds = %18, %2
  %21 = phi i1 [ true, %2 ], [ %19, %18 ]
  ret i1 %21
}

; Function Attrs: inlinehint nounwind uwtable
define internal ptr @lean_ctor_obj_cptr(ptr noundef %0) #0 {
  %2 = alloca ptr, align 8
  store ptr %0, ptr %2, align 8, !tbaa !4
  %3 = load ptr, ptr %2, align 8, !tbaa !4
  %4 = call ptr @lean_to_ctor(ptr noundef %3)
  %5 = getelementptr inbounds nuw %struct.lean_ctor_object, ptr %4, i32 0, i32 1
  %6 = getelementptr inbounds [0 x ptr], ptr %5, i64 0, i64 0
  ret ptr %6
}

; Function Attrs: inlinehint nounwind uwtable
define internal zeroext i8 @lean_ptr_tag(ptr noundef %0) #0 {
  %2 = alloca ptr, align 8
  store ptr %0, ptr %2, align 8, !tbaa !4
  %3 = load ptr, ptr %2, align 8, !tbaa !4
  %4 = getelementptr inbounds nuw %struct.lean_object, ptr %3, i32 0, i32 1
  %5 = load i32, ptr %4, align 4
  %6 = lshr i32 %5, 24
  %7 = trunc i32 %6 to i8
  ret i8 %7
}

; Function Attrs: inlinehint nounwind uwtable
define internal i64 @lean_unbox(ptr noundef %0) #0 {
  %2 = alloca ptr, align 8
  store ptr %0, ptr %2, align 8, !tbaa !4
  %3 = load ptr, ptr %2, align 8, !tbaa !4
  %4 = ptrtoint ptr %3 to i64
  %5 = lshr i64 %4, 1
  ret i64 %5
}

; Function Attrs: alwaysinline nounwind uwtable
define internal zeroext i1 @lean_is_scalar(ptr noundef %0) #1 {
  %2 = alloca ptr, align 8
  store ptr %0, ptr %2, align 8, !tbaa !4
  %3 = load ptr, ptr %2, align 8, !tbaa !4
  %4 = ptrtoint ptr %3 to i64
  %5 = and i64 %4, 1
  %6 = icmp eq i64 %5, 1
  ret i1 %6
}

; Function Attrs: inlinehint nounwind uwtable
define internal zeroext i8 @lean_string_dec_eq(ptr noundef %0, ptr noundef %1) #0 {
  %3 = alloca ptr, align 8
  %4 = alloca ptr, align 8
  store ptr %0, ptr %3, align 8, !tbaa !4
  store ptr %1, ptr %4, align 8, !tbaa !4
  %5 = load ptr, ptr %3, align 8, !tbaa !4
  %6 = load ptr, ptr %4, align 8, !tbaa !4
  %7 = call zeroext i1 @lean_string_eq(ptr noundef %5, ptr noundef %6)
  %8 = zext i1 %7 to i8
  ret i8 %8
}

; Function Attrs: inlinehint nounwind uwtable
define internal ptr @lean_ctor_get(ptr noundef %0, i32 noundef %1) #0 {
  %3 = alloca ptr, align 8
  %4 = alloca i32, align 4
  store ptr %0, ptr %3, align 8, !tbaa !4
  store i32 %1, ptr %4, align 4, !tbaa !15
  %5 = load ptr, ptr %3, align 8, !tbaa !4
  %6 = call ptr @lean_ctor_obj_cptr(ptr noundef %5)
  %7 = load i32, ptr %4, align 4, !tbaa !15
  %8 = zext i32 %7 to i64
  %9 = getelementptr inbounds nuw ptr, ptr %6, i64 %8
  %10 = load ptr, ptr %9, align 8, !tbaa !4
  ret ptr %10
}

; Function Attrs: inlinehint nounwind uwtable
define internal i32 @lean_obj_tag(ptr noundef %0) #0 {
  %2 = alloca i32, align 4
  %3 = alloca ptr, align 8
  store ptr %0, ptr %3, align 8, !tbaa !4
  %4 = load ptr, ptr %3, align 8, !tbaa !4
  %5 = call zeroext i1 @lean_is_scalar(ptr noundef %4)
  br i1 %5, label %6, label %10

6:                                                ; preds = %1
  %7 = load ptr, ptr %3, align 8, !tbaa !4
  %8 = call i64 @lean_unbox(ptr noundef %7)
  %9 = trunc i64 %8 to i32
  store i32 %9, ptr %2, align 4
  br label %14

10:                                               ; preds = %1
  %11 = load ptr, ptr %3, align 8, !tbaa !4
  %12 = call zeroext i8 @lean_ptr_tag(ptr noundef %11)
  %13 = zext i8 %12 to i32
  store i32 %13, ptr %2, align 4
  br label %14

14:                                               ; preds = %10, %6
  %15 = load i32, ptr %2, align 4
  ret i32 %15
}

; Function Attrs: nounwind uwtable
define zeroext i8 @l_Lean_Core_instMonadLogCoreM___lambda__5(ptr noundef %0) #2 {
  %2 = alloca i8, align 1
  %3 = alloca ptr, align 8
  %4 = alloca ptr, align 8
  %5 = alloca ptr, align 8
  %6 = alloca ptr, align 8
  %7 = alloca i8, align 1
  %8 = alloca i32, align 4
  %9 = alloca ptr, align 8
  %10 = alloca ptr, align 8
  %11 = alloca ptr, align 8
  %12 = alloca ptr, align 8
  %13 = alloca i8, align 1
  %14 = alloca ptr, align 8
  %15 = alloca i8, align 1
  %16 = alloca i8, align 1
  %17 = alloca ptr, align 8
  %18 = alloca i8, align 1
  %19 = alloca ptr, align 8
  %20 = alloca i8, align 1
  %21 = alloca i8, align 1
  %22 = alloca i8, align 1
  %23 = alloca i8, align 1
  store ptr %0, ptr %3, align 8, !tbaa !4
  br label %24

24:                                               ; preds = %1
  %25 = load ptr, ptr %3, align 8, !tbaa !4
  %26 = call i32 @lean_obj_tag(ptr noundef %25)
  %27 = icmp eq i32 %26, 1
  br i1 %27, label %28, label %89

28:                                               ; preds = %24
  call void @llvm.lifetime.start.p0(i64 8, ptr %4) #8
  %29 = load ptr, ptr %3, align 8, !tbaa !4
  %30 = call ptr @lean_ctor_get(ptr noundef %29, i32 noundef 0)
  store ptr %30, ptr %4, align 8, !tbaa !4
  %31 = load ptr, ptr %4, align 8, !tbaa !4
  %32 = call i32 @lean_obj_tag(ptr noundef %31)
  switch i32 %32, label %86 [
    i32 0, label %33
    i32 1, label %41
  ]

33:                                               ; preds = %28
  call void @llvm.lifetime.start.p0(i64 8, ptr %5) #8
  call void @llvm.lifetime.start.p0(i64 8, ptr %6) #8
  call void @llvm.lifetime.start.p0(i64 1, ptr %7) #8
  %34 = load ptr, ptr %3, align 8, !tbaa !4
  %35 = call ptr @lean_ctor_get(ptr noundef %34, i32 noundef 1)
  store ptr %35, ptr %5, align 8, !tbaa !4
  %36 = load ptr, ptr @l_Lean_Core_instMonadLogCoreM___lambda__5___closed__1, align 8, !tbaa !4
  store ptr %36, ptr %6, align 8, !tbaa !4
  %37 = load ptr, ptr %5, align 8, !tbaa !4
  %38 = load ptr, ptr %6, align 8, !tbaa !4
  %39 = call zeroext i8 @lean_string_dec_eq(ptr noundef %37, ptr noundef %38)
  store i8 %39, ptr %7, align 1, !tbaa !14
  %40 = load i8, ptr %7, align 1, !tbaa !14
  store i8 %40, ptr %2, align 1
  store i32 1, ptr %8, align 4
  call void @llvm.lifetime.end.p0(i64 1, ptr %7) #8
  call void @llvm.lifetime.end.p0(i64 8, ptr %6) #8
  call void @llvm.lifetime.end.p0(i64 8, ptr %5) #8
  br label %88

41:                                               ; preds = %28
  call void @llvm.lifetime.start.p0(i64 8, ptr %9) #8
  %42 = load ptr, ptr %4, align 8, !tbaa !4
  %43 = call ptr @lean_ctor_get(ptr noundef %42, i32 noundef 0)
  store ptr %43, ptr %9, align 8, !tbaa !4
  %44 = load ptr, ptr %9, align 8, !tbaa !4
  %45 = call i32 @lean_obj_tag(ptr noundef %44)
  %46 = icmp eq i32 %45, 0
  br i1 %46, label %47, label %83

47:                                               ; preds = %41
  call void @llvm.lifetime.start.p0(i64 8, ptr %10) #8
  call void @llvm.lifetime.start.p0(i64 8, ptr %11) #8
  call void @llvm.lifetime.start.p0(i64 8, ptr %12) #8
  call void @llvm.lifetime.start.p0(i64 1, ptr %13) #8
  %48 = load ptr, ptr %3, align 8, !tbaa !4
  %49 = call ptr @lean_ctor_get(ptr noundef %48, i32 noundef 1)
  store ptr %49, ptr %10, align 8, !tbaa !4
  %50 = load ptr, ptr %4, align 8, !tbaa !4
  %51 = call ptr @lean_ctor_get(ptr noundef %50, i32 noundef 1)
  store ptr %51, ptr %11, align 8, !tbaa !4
  %52 = load ptr, ptr @l_Lean_initFn____x40_Lean_CoreM___hyg_114____closed__1, align 8, !tbaa !4
  store ptr %52, ptr %12, align 8, !tbaa !4
  %53 = load ptr, ptr %11, align 8, !tbaa !4
  %54 = load ptr, ptr %12, align 8, !tbaa !4
  %55 = call zeroext i8 @lean_string_dec_eq(ptr noundef %53, ptr noundef %54)
  store i8 %55, ptr %13, align 1, !tbaa !14
  %56 = load i8, ptr %13, align 1, !tbaa !14
  %57 = zext i8 %56 to i32
  %58 = icmp eq i32 %57, 0
  br i1 %58, label %59, label %76

59:                                               ; preds = %47
  call void @llvm.lifetime.start.p0(i64 8, ptr %14) #8
  call void @llvm.lifetime.start.p0(i64 1, ptr %15) #8
  %60 = load ptr, ptr @l_Lean_Core_instMonadLogCoreM___lambda__5___closed__2, align 8, !tbaa !4
  store ptr %60, ptr %14, align 8, !tbaa !4
  %61 = load ptr, ptr %11, align 8, !tbaa !4
  %62 = load ptr, ptr %14, align 8, !tbaa !4
  %63 = call zeroext i8 @lean_string_dec_eq(ptr noundef %61, ptr noundef %62)
  store i8 %63, ptr %15, align 1, !tbaa !14
  %64 = load i8, ptr %15, align 1, !tbaa !14
  %65 = zext i8 %64 to i32
  %66 = icmp eq i32 %65, 0
  br i1 %66, label %67, label %69

67:                                               ; preds = %59
  call void @llvm.lifetime.start.p0(i64 1, ptr %16) #8
  store i8 0, ptr %16, align 1, !tbaa !14
  %68 = load i8, ptr %16, align 1, !tbaa !14
  store i8 %68, ptr %2, align 1
  store i32 1, ptr %8, align 4
  call void @llvm.lifetime.end.p0(i64 1, ptr %16) #8
  br label %75

69:                                               ; preds = %59
  call void @llvm.lifetime.start.p0(i64 8, ptr %17) #8
  call void @llvm.lifetime.start.p0(i64 1, ptr %18) #8
  %70 = load ptr, ptr @l_Lean_Core_instMonadLogCoreM___lambda__5___closed__3, align 8, !tbaa !4
  store ptr %70, ptr %17, align 8, !tbaa !4
  %71 = load ptr, ptr %10, align 8, !tbaa !4
  %72 = load ptr, ptr %17, align 8, !tbaa !4
  %73 = call zeroext i8 @lean_string_dec_eq(ptr noundef %71, ptr noundef %72)
  store i8 %73, ptr %18, align 1, !tbaa !14
  %74 = load i8, ptr %18, align 1, !tbaa !14
  store i8 %74, ptr %2, align 1
  store i32 1, ptr %8, align 4
  call void @llvm.lifetime.end.p0(i64 1, ptr %18) #8
  call void @llvm.lifetime.end.p0(i64 8, ptr %17) #8
  br label %75

75:                                               ; preds = %69, %67
  call void @llvm.lifetime.end.p0(i64 1, ptr %15) #8
  call void @llvm.lifetime.end.p0(i64 8, ptr %14) #8
  br label %82

76:                                               ; preds = %47
  call void @llvm.lifetime.start.p0(i64 8, ptr %19) #8
  call void @llvm.lifetime.start.p0(i64 1, ptr %20) #8
  %77 = load ptr, ptr @l_Lean_Core_instMonadLogCoreM___lambda__5___closed__4, align 8, !tbaa !4
  store ptr %77, ptr %19, align 8, !tbaa !4
  %78 = load ptr, ptr %10, align 8, !tbaa !4
  %79 = load ptr, ptr %19, align 8, !tbaa !4
  %80 = call zeroext i8 @lean_string_dec_eq(ptr noundef %78, ptr noundef %79)
  store i8 %80, ptr %20, align 1, !tbaa !14
  %81 = load i8, ptr %20, align 1, !tbaa !14
  store i8 %81, ptr %2, align 1
  store i32 1, ptr %8, align 4
  call void @llvm.lifetime.end.p0(i64 1, ptr %20) #8
  call void @llvm.lifetime.end.p0(i64 8, ptr %19) #8
  br label %82

82:                                               ; preds = %76, %75
  call void @llvm.lifetime.end.p0(i64 1, ptr %13) #8
  call void @llvm.lifetime.end.p0(i64 8, ptr %12) #8
  call void @llvm.lifetime.end.p0(i64 8, ptr %11) #8
  call void @llvm.lifetime.end.p0(i64 8, ptr %10) #8
  br label %85

83:                                               ; preds = %41
  call void @llvm.lifetime.start.p0(i64 1, ptr %21) #8
  store i8 0, ptr %21, align 1, !tbaa !14
  %84 = load i8, ptr %21, align 1, !tbaa !14
  store i8 %84, ptr %2, align 1
  store i32 1, ptr %8, align 4
  call void @llvm.lifetime.end.p0(i64 1, ptr %21) #8
  br label %85

85:                                               ; preds = %83, %82
  call void @llvm.lifetime.end.p0(i64 8, ptr %9) #8
  br label %88

86:                                               ; preds = %28
  call void @llvm.lifetime.start.p0(i64 1, ptr %22) #8
  store i8 0, ptr %22, align 1, !tbaa !14
  %87 = load i8, ptr %22, align 1, !tbaa !14
  store i8 %87, ptr %2, align 1
  store i32 1, ptr %8, align 4
  call void @llvm.lifetime.end.p0(i64 1, ptr %22) #8
  br label %88

88:                                               ; preds = %86, %85, %33
  call void @llvm.lifetime.end.p0(i64 8, ptr %4) #8
  br label %91

89:                                               ; preds = %24
  call void @llvm.lifetime.start.p0(i64 1, ptr %23) #8
  store i8 0, ptr %23, align 1, !tbaa !14
  %90 = load i8, ptr %23, align 1, !tbaa !14
  store i8 %90, ptr %2, align 1
  store i32 1, ptr %8, align 4
  call void @llvm.lifetime.end.p0(i64 1, ptr %23) #8
  br label %91

91:                                               ; preds = %89, %88
  %92 = load i8, ptr %2, align 1
  ret i8 %92
}