; Function Attrs: nounwind uwtable
define zeroext range(i8 0, 2) i8 @l_Lean_Core_instMonadLogCoreM___lambda__5(ptr noundef %0) local_unnamed_addr #1 {
  %2 = ptrtoint ptr %0 to i64
  %3 = and i64 %2, 1
  %.not.i = icmp eq i64 %3, 0
  br i1 %.not.i, label %7, label %4

4:                                                ; preds = %1
  %5 = lshr i64 %2, 1
  %6 = trunc i64 %5 to i32
  br label %lean_obj_tag.exit

7:                                                ; preds = %1
  %8 = getelementptr i8, ptr %0, i64 4
  %.val.i = load i32, ptr %8, align 4
  %9 = lshr i32 %.val.i, 24
  br label %lean_obj_tag.exit

lean_obj_tag.exit:                                ; preds = %4, %7
  %.0.i = phi i32 [ %6, %4 ], [ %9, %7 ]
  %10 = icmp eq i32 %.0.i, 1
  br i1 %10, label %11, label %lean_string_dec_eq.exit

11:                                               ; preds = %lean_obj_tag.exit
  %12 = getelementptr inbounds nuw i8, ptr %0, i64 8
  %13 = load ptr, ptr %12, align 8, !tbaa !9
  %14 = ptrtoint ptr %13 to i64
  %15 = and i64 %14, 1
  %.not.i27 = icmp eq i64 %15, 0
  br i1 %.not.i27, label %19, label %16

16:                                               ; preds = %11
  %17 = lshr i64 %14, 1
  %18 = trunc i64 %17 to i32
  br label %lean_obj_tag.exit30

19:                                               ; preds = %11
  %20 = getelementptr i8, ptr %13, i64 4
  %.val.i29 = load i32, ptr %20, align 4
  %21 = lshr i32 %.val.i29, 24
  br label %lean_obj_tag.exit30

lean_obj_tag.exit30:                              ; preds = %16, %19
  %.0.i28 = phi i32 [ %18, %16 ], [ %21, %19 ]
  switch i32 %.0.i28, label %lean_string_dec_eq.exit [
    i32 0, label %22
    i32 1, label %33
  ]

22:                                               ; preds = %lean_obj_tag.exit30
  %23 = getelementptr inbounds nuw i8, ptr %0, i64 16
  %24 = load ptr, ptr %23, align 8, !tbaa !9
  %25 = load ptr, ptr @l_Lean_Core_instMonadLogCoreM___lambda__5___closed__1, align 8, !tbaa !9
  %26 = icmp eq ptr %24, %25
  br i1 %26, label %lean_string_dec_eq.exit, label %27

27:                                               ; preds = %22
  %28 = getelementptr i8, ptr %24, i64 8
  %.val.i.i = load i64, ptr %28, align 8, !tbaa !12
  %29 = getelementptr i8, ptr %25, i64 8
  %.val7.i.i = load i64, ptr %29, align 8, !tbaa !12
  %30 = icmp eq i64 %.val.i.i, %.val7.i.i
  br i1 %30, label %31, label %lean_string_dec_eq.exit

31:                                               ; preds = %27
  %32 = tail call zeroext i1 @lean_string_eq_cold(ptr noundef nonnull %24, ptr noundef nonnull %25) #7
  br label %lean_string_dec_eq.exit

33:                                               ; preds = %lean_obj_tag.exit30
  %34 = getelementptr inbounds nuw i8, ptr %13, i64 8
  %35 = load ptr, ptr %34, align 8, !tbaa !9
  %36 = ptrtoint ptr %35 to i64
  %37 = and i64 %36, 1
  %.not.i31 = icmp eq i64 %37, 0
  br i1 %.not.i31, label %41, label %38

38:                                               ; preds = %33
  %39 = lshr i64 %36, 1
  %40 = trunc i64 %39 to i32
  br label %lean_obj_tag.exit34

41:                                               ; preds = %33
  %42 = getelementptr i8, ptr %35, i64 4
  %.val.i33 = load i32, ptr %42, align 4
  %43 = lshr i32 %.val.i33, 24
  br label %lean_obj_tag.exit34

lean_obj_tag.exit34:                              ; preds = %38, %41
  %.0.i32 = phi i32 [ %40, %38 ], [ %43, %41 ]
  %44 = icmp eq i32 %.0.i32, 0
  br i1 %44, label %45, label %lean_string_dec_eq.exit

45:                                               ; preds = %lean_obj_tag.exit34
  %46 = getelementptr inbounds nuw i8, ptr %0, i64 16
  %47 = load ptr, ptr %46, align 8, !tbaa !9
  %48 = getelementptr inbounds nuw i8, ptr %13, i64 16
  %49 = load ptr, ptr %48, align 8, !tbaa !9
  %50 = load ptr, ptr @l_Lean_initFn____x40_Lean_CoreM___hyg_114____closed__1, align 8, !tbaa !9
  %51 = icmp eq ptr %49, %50
  br i1 %51, label %lean_string_dec_eq.exit37.thread47, label %52

52:                                               ; preds = %45
  %53 = getelementptr i8, ptr %49, i64 8
  %.val.i.i35 = load i64, ptr %53, align 8, !tbaa !12
  %54 = getelementptr i8, ptr %50, i64 8
  %.val7.i.i36 = load i64, ptr %54, align 8, !tbaa !12
  %55 = icmp eq i64 %.val.i.i35, %.val7.i.i36
  br i1 %55, label %lean_string_dec_eq.exit37, label %lean_string_dec_eq.exit37.thread

lean_string_dec_eq.exit37:                        ; preds = %52
  %56 = tail call zeroext i1 @lean_string_eq_cold(ptr noundef nonnull %49, ptr noundef nonnull %50) #7
  br i1 %56, label %lean_string_dec_eq.exit37.thread47, label %lean_string_dec_eq.exit37.thread

lean_string_dec_eq.exit37.thread:                 ; preds = %52, %lean_string_dec_eq.exit37
  %57 = load ptr, ptr @l_Lean_Core_instMonadLogCoreM___lambda__5___closed__2, align 8, !tbaa !9
  %58 = icmp eq ptr %49, %57
  br i1 %58, label %lean_string_dec_eq.exit40.thread48, label %59

59:                                               ; preds = %lean_string_dec_eq.exit37.thread
  %.val.i.i38 = load i64, ptr %53, align 8, !tbaa !12
  %60 = getelementptr i8, ptr %57, i64 8
  %.val7.i.i39 = load i64, ptr %60, align 8, !tbaa !12
  %61 = icmp eq i64 %.val.i.i38, %.val7.i.i39
  br i1 %61, label %lean_string_dec_eq.exit40, label %lean_string_dec_eq.exit

lean_string_dec_eq.exit40:                        ; preds = %59
  %62 = tail call zeroext i1 @lean_string_eq_cold(ptr noundef nonnull %49, ptr noundef nonnull %57) #7
  br i1 %62, label %lean_string_dec_eq.exit40.thread48, label %lean_string_dec_eq.exit

lean_string_dec_eq.exit40.thread48:               ; preds = %lean_string_dec_eq.exit37.thread, %lean_string_dec_eq.exit40
  %63 = load ptr, ptr @l_Lean_Core_instMonadLogCoreM___lambda__5___closed__3, align 8, !tbaa !9
  %64 = icmp eq ptr %47, %63
  br i1 %64, label %lean_string_dec_eq.exit, label %65

65:                                               ; preds = %lean_string_dec_eq.exit40.thread48
  %66 = getelementptr i8, ptr %47, i64 8
  %.val.i.i41 = load i64, ptr %66, align 8, !tbaa !12
  %67 = getelementptr i8, ptr %63, i64 8
  %.val7.i.i42 = load i64, ptr %67, align 8, !tbaa !12
  %68 = icmp eq i64 %.val.i.i41, %.val7.i.i42
  br i1 %68, label %69, label %lean_string_dec_eq.exit

69:                                               ; preds = %65
  %70 = tail call zeroext i1 @lean_string_eq_cold(ptr noundef nonnull %47, ptr noundef nonnull %63) #7
  br label %lean_string_dec_eq.exit

lean_string_dec_eq.exit37.thread47:               ; preds = %45, %lean_string_dec_eq.exit37
  %71 = load ptr, ptr @l_Lean_Core_instMonadLogCoreM___lambda__5___closed__4, align 8, !tbaa !9
  %72 = icmp eq ptr %47, %71
  br i1 %72, label %lean_string_dec_eq.exit, label %73

73:                                               ; preds = %lean_string_dec_eq.exit37.thread47
  %74 = getelementptr i8, ptr %47, i64 8
  %.val.i.i44 = load i64, ptr %74, align 8, !tbaa !12
  %75 = getelementptr i8, ptr %71, i64 8
  %.val7.i.i45 = load i64, ptr %75, align 8, !tbaa !12
  %76 = icmp eq i64 %.val.i.i44, %.val7.i.i45
  br i1 %76, label %77, label %lean_string_dec_eq.exit

77:                                               ; preds = %73
  %78 = tail call zeroext i1 @lean_string_eq_cold(ptr noundef nonnull %47, ptr noundef nonnull %71) #7
  br label %lean_string_dec_eq.exit

lean_string_dec_eq.exit:                          ; preds = %59, %77, %73, %lean_string_dec_eq.exit37.thread47, %69, %65, %lean_string_dec_eq.exit40.thread48, %31, %27, %22, %lean_obj_tag.exit, %lean_obj_tag.exit34, %lean_string_dec_eq.exit40, %lean_obj_tag.exit30
  %.4.shrunk = phi i1 [ false, %lean_string_dec_eq.exit40 ], [ false, %lean_obj_tag.exit34 ], [ false, %lean_obj_tag.exit30 ], [ false, %lean_obj_tag.exit ], [ true, %22 ], [ false, %27 ], [ %32, %31 ], [ true, %lean_string_dec_eq.exit40.thread48 ], [ false, %65 ], [ %70, %69 ], [ true, %lean_string_dec_eq.exit37.thread47 ], [ false, %73 ], [ %78, %77 ], [ false, %59 ]
  %.4 = zext i1 %.4.shrunk to i8
  ret i8 %.4
}